; Function Attrs: mustprogress uwtable
define internal fastcc noundef range(i32 -2147483648, 214748365) i32 @_ZL20stbi__pnm_getintegerP13stbi__contextPc(ptr noundef nonnull %0, ptr noundef nonnull captures(none) %1) unnamed_addr #4 {
  %3 = getelementptr inbounds nuw i8, ptr %0, i64 16
  %4 = getelementptr inbounds nuw i8, ptr %0, i64 32
  %5 = getelementptr inbounds nuw i8, ptr %0, i64 40
  %6 = getelementptr inbounds nuw i8, ptr %0, i64 48
  %7 = getelementptr inbounds nuw i8, ptr %0, i64 192
  %8 = getelementptr inbounds nuw i8, ptr %0, i64 200
  %9 = getelementptr inbounds nuw i8, ptr %0, i64 56
  %10 = getelementptr inbounds nuw i8, ptr %0, i64 52
  %11 = getelementptr inbounds nuw i8, ptr %0, i64 208
  %12 = getelementptr inbounds nuw i8, ptr %0, i64 184
  %13 = getelementptr inbounds nuw i8, ptr %0, i64 57
  br label %14

14:                                               ; preds = %61, %2
  %.0 = phi i32 [ 0, %2 ], [ %32, %61 ]
  %15 = load ptr, ptr %3, align 8, !tbaa !22
  %.not.i = icmp eq ptr %15, null
  br i1 %.not.i, label %_ZL12stbi__at_eofP13stbi__context.exit, label %16

16:                                               ; preds = %14
  %17 = load ptr, ptr %4, align 8, !tbaa !127
  %18 = load ptr, ptr %5, align 8, !tbaa !14
  %19 = tail call noundef i32 %17(ptr noundef %18)
  %.not6.i = icmp eq i32 %19, 0
  br i1 %.not6.i, label %_ZL12stbi__at_eofP13stbi__context.exit.thread, label %20

20:                                               ; preds = %16
  %21 = load i32, ptr %6, align 8, !tbaa !18
  %22 = icmp eq i32 %21, 0
  br i1 %22, label %.critedge, label %_ZL12stbi__at_eofP13stbi__context.exit

_ZL12stbi__at_eofP13stbi__context.exit:           ; preds = %14, %20
  %23 = load ptr, ptr %7, align 8, !tbaa !21
  %24 = load ptr, ptr %8, align 8, !tbaa !24
  %.not20 = icmp ult ptr %23, %24
  br i1 %.not20, label %_ZL12stbi__at_eofP13stbi__context.exit.thread, label %.critedge

_ZL12stbi__at_eofP13stbi__context.exit.thread:    ; preds = %16, %_ZL12stbi__at_eofP13stbi__context.exit
  %25 = load i8, ptr %1, align 1, !tbaa !23
  %26 = add i8 %25, -58
  %27 = icmp ult i8 %26, -10
  br i1 %27, label %.critedge, label %28

28:                                               ; preds = %_ZL12stbi__at_eofP13stbi__context.exit.thread
  %29 = mul nsw i32 %.0, 10
  %30 = zext nneg i8 %25 to i32
  %31 = add i32 %29, -48
  %32 = add i32 %31, %30
  %33 = load ptr, ptr %7, align 8, !tbaa !21
  %34 = load ptr, ptr %8, align 8, !tbaa !24
  %35 = icmp ult ptr %33, %34
  br i1 %35, label %36, label %39

36:                                               ; preds = %28
  %37 = getelementptr inbounds nuw i8, ptr %33, i64 1
  store ptr %37, ptr %7, align 8, !tbaa !21
  %38 = load i8, ptr %33, align 1, !tbaa !23
  br label %_ZL10stbi__get8P13stbi__context.exit

39:                                               ; preds = %28
  %40 = load i32, ptr %6, align 8, !tbaa !18
  %.not.i13 = icmp eq i32 %40, 0
  br i1 %.not.i13, label %_ZL10stbi__get8P13stbi__context.exit, label %41

41:                                               ; preds = %39
  %42 = load ptr, ptr %3, align 8, !tbaa !22
  %43 = load ptr, ptr %5, align 8, !tbaa !14
  %44 = load i32, ptr %10, align 4, !tbaa !17
  %45 = tail call noundef i32 %42(ptr noundef %43, ptr noundef nonnull %9, i32 noundef %44)
  %46 = load ptr, ptr %7, align 8, !tbaa !21
  %47 = load ptr, ptr %11, align 8, !tbaa !20
  %48 = ptrtoint ptr %46 to i64
  %49 = ptrtoint ptr %47 to i64
  %50 = sub i64 %48, %49
  %51 = trunc i64 %50 to i32
  %52 = load i32, ptr %12, align 8, !tbaa !19
  %53 = add nsw i32 %52, %51
  store i32 %53, ptr %12, align 8, !tbaa !19
  %54 = icmp eq i32 %45, 0
  br i1 %54, label %55, label %56

55:                                               ; preds = %41
  store i32 0, ptr %6, align 8, !tbaa !18
  store i8 0, ptr %9, align 1, !tbaa !23
  br label %_ZL19stbi__refill_bufferP13stbi__context.exit.i

56:                                               ; preds = %41
  %57 = sext i32 %45 to i64
  %58 = getelementptr inbounds i8, ptr %9, i64 %57
  %.pre.i = load i8, ptr %9, align 1, !tbaa !23
  br label %_ZL19stbi__refill_bufferP13stbi__context.exit.i

_ZL19stbi__refill_bufferP13stbi__context.exit.i:  ; preds = %56, %55
  %59 = phi i8 [ 0, %55 ], [ %.pre.i, %56 ]
  %.sink.i.i = phi ptr [ %13, %55 ], [ %58, %56 ]
  store ptr %.sink.i.i, ptr %8, align 8, !tbaa !24
  store ptr %13, ptr %7, align 8, !tbaa !21
  br label %_ZL10stbi__get8P13stbi__context.exit

_ZL10stbi__get8P13stbi__context.exit:             ; preds = %36, %39, %_ZL19stbi__refill_bufferP13stbi__context.exit.i
  %.0.i14 = phi i8 [ %38, %36 ], [ %59, %_ZL19stbi__refill_bufferP13stbi__context.exit.i ], [ 0, %39 ]
  store i8 %.0.i14, ptr %1, align 1, !tbaa !23
  %60 = icmp sgt i32 %32, 214748364
  br i1 %60, label %64, label %61

61:                                               ; preds = %_ZL10stbi__get8P13stbi__context.exit
  %62 = icmp eq i32 %32, 214748364
  %63 = icmp sgt i8 %.0.i14, 55
  %or.cond = and i1 %62, %63
  br i1 %or.cond, label %64, label %14, !llvm.loop !285

64:                                               ; preds = %61, %_ZL10stbi__get8P13stbi__context.exit
  store ptr @.str.72, ptr @_ZL22stbi__g_failure_reason, align 8, !tbaa !5
  br label %.critedge

.critedge:                                        ; preds = %20, %_ZL12stbi__at_eofP13stbi__context.exit.thread, %_ZL12stbi__at_eofP13stbi__context.exit, %64
  %.010 = phi i32 [ 0, %64 ], [ %.0, %_ZL12stbi__at_eofP13stbi__context.exit ], [ %.0, %_ZL12stbi__at_eofP13stbi__context.exit.thread ], [ %.0, %20 ]
  ret i32 %.010
}